; ModuleID = 'source-C-CXX/18/2601.c'
source_filename = "source-C-CXX/18/2601.c"
target datalayout = "e-m:e-p270:32:32-p271:32:32-p272:64:64-i64:64-f80:128-n8:16:32:64-S128"
target triple = "x86_64-pc-linux-gnu"

@.str = private unnamed_addr constant [3 x i8] c"%s\00", align 1

; Function Attrs: nounwind sspstrong uwtable
define dso_local i32 @main() local_unnamed_addr #0 {
  %1 = alloca [101 x i8], align 16
  %2 = alloca [101 x i8], align 16
  %3 = alloca [101 x i8], align 16
  %4 = alloca [101 x i8], align 16
  %5 = getelementptr inbounds [101 x i8], [101 x i8]* %1, i64 0, i64 0
  call void @llvm.lifetime.start.p0i8(i64 101, i8* nonnull %5) #7
  call void @llvm.memset.p0i8.i64(i8* noundef nonnull align 16 dereferenceable(101) %5, i8 0, i64 101, i1 false)
  %6 = getelementptr inbounds [101 x i8], [101 x i8]* %2, i64 0, i64 0
  call void @llvm.lifetime.start.p0i8(i64 101, i8* nonnull %6) #7
  %7 = getelementptr inbounds [101 x i8], [101 x i8]* %3, i64 0, i64 0
  call void @llvm.lifetime.start.p0i8(i64 101, i8* nonnull %7) #7
  %8 = call i32 (i8*, ...) bitcast (i32 (...)* @gets to i32 (i8*, ...)*)(i8* nonnull %5) #7
  %9 = call i32 (i8*, ...) bitcast (i32 (...)* @gets to i32 (i8*, ...)*)(i8* nonnull %6) #7
  %10 = call i32 (i8*, ...) bitcast (i32 (...)* @gets to i32 (i8*, ...)*)(i8* nonnull %7) #7
  %11 = call i64 @strlen(i8* noundef nonnull %5) #8
  %12 = trunc i64 %11 to i32
  %13 = getelementptr inbounds [101 x i8], [101 x i8]* %4, i64 0, i64 0
  %14 = icmp sgt i32 %12, 0
  br i1 %14, label %15, label %52

15:                                               ; preds = %0
  %16 = shl i64 %11, 32
  %17 = ashr exact i64 %16, 32
  br label %18

18:                                               ; preds = %15, %49
  %19 = phi i32 [ %50, %49 ], [ 0, %15 ]
  call void @llvm.lifetime.start.p0i8(i64 101, i8* nonnull %13) #7
  call void @llvm.memset.p0i8.i64(i8* noundef nonnull align 16 dereferenceable(101) %13, i8 0, i64 101, i1 false)
  %20 = sext i32 %19 to i64
  %21 = getelementptr inbounds [101 x i8], [101 x i8]* %1, i64 0, i64 %20
  %22 = load i8, i8* %21, align 1, !tbaa !5
  %23 = icmp ne i8 %22, 32
  %24 = icmp slt i32 %19, %12
  %25 = select i1 %23, i1 %24, i1 false
  br i1 %25, label %26, label %40

26:                                               ; preds = %18, %26
  %27 = phi i64 [ %32, %26 ], [ %20, %18 ]
  %28 = phi i64 [ %31, %26 ], [ 0, %18 ]
  %29 = phi i8 [ %34, %26 ], [ %22, %18 ]
  %30 = getelementptr inbounds [101 x i8], [101 x i8]* %4, i64 0, i64 %28
  store i8 %29, i8* %30, align 1, !tbaa !5
  %31 = add nuw nsw i64 %28, 1
  %32 = add nsw i64 %27, 1
  %33 = getelementptr inbounds [101 x i8], [101 x i8]* %1, i64 0, i64 %32
  %34 = load i8, i8* %33, align 1, !tbaa !5
  %35 = icmp ne i8 %34, 32
  %36 = icmp slt i64 %32, %17
  %37 = select i1 %35, i1 %36, i1 false
  br i1 %37, label %26, label %38, !llvm.loop !8

38:                                               ; preds = %26
  %39 = trunc i64 %32 to i32
  br label %40

40:                                               ; preds = %38, %18
  %41 = phi i32 [ %19, %18 ], [ %39, %38 ]
  %42 = phi i1 [ %24, %18 ], [ %36, %38 ]
  %43 = call i32 @strcmp(i8* noundef nonnull %13, i8* noundef nonnull %6) #8
  %44 = icmp eq i32 %43, 0
  %45 = select i1 %44, i8* %7, i8* %13
  %46 = call i32 (i8*, ...) @printf(i8* nonnull dereferenceable(1) getelementptr inbounds ([3 x i8], [3 x i8]* @.str, i64 0, i64 0), i8* nonnull %45)
  br i1 %42, label %47, label %49

47:                                               ; preds = %40
  %48 = call i32 @putchar(i32 32)
  br label %49

49:                                               ; preds = %47, %40
  call void @llvm.lifetime.end.p0i8(i64 101, i8* nonnull %13) #7
  %50 = add nsw i32 %41, 1
  %51 = icmp slt i32 %50, %12
  br i1 %51, label %18, label %52, !llvm.loop !10

52:                                               ; preds = %49, %0
  call void @llvm.lifetime.end.p0i8(i64 101, i8* nonnull %7) #7
  call void @llvm.lifetime.end.p0i8(i64 101, i8* nonnull %6) #7
  call void @llvm.lifetime.end.p0i8(i64 101, i8* nonnull %5) #7
  ret i32 0
}

; Function Attrs: argmemonly mustprogress nofree nosync nounwind willreturn
declare void @llvm.lifetime.start.p0i8(i64 immarg, i8* nocapture) #1

; Function Attrs: argmemonly mustprogress nofree nounwind willreturn writeonly
declare void @llvm.memset.p0i8.i64(i8* nocapture writeonly, i8, i64, i1 immarg) #2

declare i32 @gets(...) local_unnamed_addr #3

; Function Attrs: argmemonly mustprogress nofree nounwind readonly willreturn
declare i64 @strlen(i8* nocapture) local_unnamed_addr #4

; Function Attrs: argmemonly mustprogress nofree nounwind readonly willreturn
declare i32 @strcmp(i8* nocapture, i8* nocapture) local_unnamed_addr #4

; Function Attrs: nofree nounwind
declare noundef i32 @printf(i8* nocapture noundef readonly, ...) local_unnamed_addr #5

; Function Attrs: argmemonly mustprogress nofree nosync nounwind willreturn
declare void @llvm.lifetime.end.p0i8(i64 immarg, i8* nocapture) #1

; Function Attrs: nofree nounwind
declare noundef i32 @putchar(i32 noundef) local_unnamed_addr #6


!llvm.module.flags = !{!0, !1, !2, !3}
!llvm.ident = !{!4}

!0 = !{i32 1, !"wchar_size", i32 4}
!1 = !{i32 7, !"PIC Level", i32 2}
!2 = !{i32 7, !"PIE Level", i32 2}
!3 = !{i32 7, !"uwtable", i32 1}
!4 = !{!"clang version 13.0.0"}
!5 = !{!6, !6, i64 0}
!6 = !{!"omnipotent char", !7, i64 0}
!7 = !{!"Simple C/C++ TBAA"}
!8 = distinct !{!8, !9}
!9 = !{!"llvm.loop.mustprogress"}
!10 = distinct !{!10, !9}
